; ModuleID = '6/1613.c'
source_filename = "6/1613.c"
target datalayout = "e-m:e-p270:32:32-p271:32:32-p272:64:64-i64:64-f80:128-n8:16:32:64-S128"
target triple = "x86_64-pc-linux-gnu"

@.str = private unnamed_addr constant [3 x i8] c"%d\00", align 1
@.str.1 = private unnamed_addr constant [5 x i8] c"%d%d\00", align 1
@.str.2 = private unnamed_addr constant [4 x i8] c"%d\0A\00", align 1

; Function Attrs: noinline nounwind uwtable
define dso_local i32 @main() #0 {
  %1 = alloca i32, align 4
  %2 = alloca i32, align 4
  %3 = alloca i32, align 4
  %4 = alloca i32, align 4
  %5 = alloca i32, align 4
  %6 = alloca i32, align 4
  %7 = alloca i32, align 4
  %8 = alloca i32, align 4
  %9 = alloca i32, align 4
  %10 = alloca [100 x i32], align 16
  %11 = alloca [100 x [100 x i32]], align 16
  store i32 0, i32* %1, align 4
  store i32 0, i32* %5, align 4
  %12 = call i32 (i8*, ...) @__isoc99_scanf(i8* getelementptr inbounds ([3 x i8], [3 x i8]* @.str, i64 0, i64 0), i32* %4)
  store i32 1, i32* %9, align 4
  br label %13

13:                                               ; preds = %124, %0
  %14 = load i32, i32* %9, align 4
  %15 = load i32, i32* %4, align 4
  %16 = icmp sle i32 %14, %15
  br i1 %16, label %17, label %127

17:                                               ; preds = %13
  %18 = call i32 (i8*, ...) @__isoc99_scanf(i8* getelementptr inbounds ([5 x i8], [5 x i8]* @.str.1, i64 0, i64 0), i32* %2, i32* %3)
  store i32 1, i32* %7, align 4
  br label %19

19:                                               ; preds = %40, %17
  %20 = load i32, i32* %7, align 4
  %21 = load i32, i32* %2, align 4
  %22 = icmp sle i32 %20, %21
  br i1 %22, label %23, label %43

23:                                               ; preds = %19
  store i32 1, i32* %8, align 4
  br label %24

24:                                               ; preds = %36, %23
  %25 = load i32, i32* %8, align 4
  %26 = load i32, i32* %3, align 4
  %27 = icmp sle i32 %25, %26
  br i1 %27, label %28, label %39

28:                                               ; preds = %24
  %29 = load i32, i32* %7, align 4
  %30 = sext i32 %29 to i64
  %31 = getelementptr inbounds [100 x [100 x i32]], [100 x [100 x i32]]* %11, i64 0, i64 %30
  %32 = load i32, i32* %8, align 4
  %33 = sext i32 %32 to i64
  %34 = getelementptr inbounds [100 x i32], [100 x i32]* %31, i64 0, i64 %33
  %35 = call i32 (i8*, ...) @__isoc99_scanf(i8* getelementptr inbounds ([3 x i8], [3 x i8]* @.str, i64 0, i64 0), i32* %34)
  br label %36

36:                                               ; preds = %28
  %37 = load i32, i32* %8, align 4
  %38 = add nsw i32 %37, 1
  store i32 %38, i32* %8, align 4
  br label %24

39:                                               ; preds = %24
  br label %40

40:                                               ; preds = %39
  %41 = load i32, i32* %7, align 4
  %42 = add nsw i32 %41, 1
  store i32 %42, i32* %7, align 4
  br label %19

43:                                               ; preds = %19
  store i32 1, i32* %8, align 4
  br label %44

44:                                               ; preds = %65, %43
  %45 = load i32, i32* %8, align 4
  %46 = load i32, i32* %3, align 4
  %47 = icmp sle i32 %45, %46
  br i1 %47, label %48, label %68

48:                                               ; preds = %44
  %49 = getelementptr inbounds [100 x [100 x i32]], [100 x [100 x i32]]* %11, i64 0, i64 1
  %50 = load i32, i32* %8, align 4
  %51 = sext i32 %50 to i64
  %52 = getelementptr inbounds [100 x i32], [100 x i32]* %49, i64 0, i64 %51
  %53 = load i32, i32* %52, align 4
  %54 = load i32, i32* %5, align 4
  %55 = add nsw i32 %54, %53
  store i32 %55, i32* %5, align 4
  %56 = load i32, i32* %2, align 4
  %57 = sext i32 %56 to i64
  %58 = getelementptr inbounds [100 x [100 x i32]], [100 x [100 x i32]]* %11, i64 0, i64 %57
  %59 = load i32, i32* %8, align 4
  %60 = sext i32 %59 to i64
  %61 = getelementptr inbounds [100 x i32], [100 x i32]* %58, i64 0, i64 %60
  %62 = load i32, i32* %61, align 4
  %63 = load i32, i32* %5, align 4
  %64 = add nsw i32 %63, %62
  store i32 %64, i32* %5, align 4
  br label %65

65:                                               ; preds = %48
  %66 = load i32, i32* %8, align 4
  %67 = add nsw i32 %66, 1
  store i32 %67, i32* %8, align 4
  br label %44

68:                                               ; preds = %44
  store i32 1, i32* %7, align 4
  br label %69

69:                                               ; preds = %90, %68
  %70 = load i32, i32* %7, align 4
  %71 = load i32, i32* %2, align 4
  %72 = icmp sle i32 %70, %71
  br i1 %72, label %73, label %93

73:                                               ; preds = %69
  %74 = load i32, i32* %7, align 4
  %75 = sext i32 %74 to i64
  %76 = getelementptr inbounds [100 x [100 x i32]], [100 x [100 x i32]]* %11, i64 0, i64 %75
  %77 = getelementptr inbounds [100 x i32], [100 x i32]* %76, i64 0, i64 1
  %78 = load i32, i32* %77, align 4
  %79 = load i32, i32* %5, align 4
  %80 = add nsw i32 %79, %78
  store i32 %80, i32* %5, align 4
  %81 = load i32, i32* %7, align 4
  %82 = sext i32 %81 to i64
  %83 = getelementptr inbounds [100 x [100 x i32]], [100 x [100 x i32]]* %11, i64 0, i64 %82
  %84 = load i32, i32* %3, align 4
  %85 = sext i32 %84 to i64
  %86 = getelementptr inbounds [100 x i32], [100 x i32]* %83, i64 0, i64 %85
  %87 = load i32, i32* %86, align 4
  %88 = load i32, i32* %5, align 4
  %89 = add nsw i32 %88, %87
  store i32 %89, i32* %5, align 4
  br label %90

90:                                               ; preds = %73
  %91 = load i32, i32* %7, align 4
  %92 = add nsw i32 %91, 1
  store i32 %92, i32* %7, align 4
  br label %69

93:                                               ; preds = %69
  %94 = getelementptr inbounds [100 x [100 x i32]], [100 x [100 x i32]]* %11, i64 0, i64 1
  %95 = getelementptr inbounds [100 x i32], [100 x i32]* %94, i64 0, i64 1
  %96 = load i32, i32* %95, align 4
  %97 = getelementptr inbounds [100 x [100 x i32]], [100 x [100 x i32]]* %11, i64 0, i64 1
  %98 = load i32, i32* %3, align 4
  %99 = sext i32 %98 to i64
  %100 = getelementptr inbounds [100 x i32], [100 x i32]* %97, i64 0, i64 %99
  %101 = load i32, i32* %100, align 4
  %102 = add nsw i32 %96, %101
  %103 = load i32, i32* %2, align 4
  %104 = sext i32 %103 to i64
  %105 = getelementptr inbounds [100 x [100 x i32]], [100 x [100 x i32]]* %11, i64 0, i64 %104
  %106 = getelementptr inbounds [100 x i32], [100 x i32]* %105, i64 0, i64 1
  %107 = load i32, i32* %106, align 4
  %108 = add nsw i32 %102, %107
  %109 = load i32, i32* %2, align 4
  %110 = sext i32 %109 to i64
  %111 = getelementptr inbounds [100 x [100 x i32]], [100 x [100 x i32]]* %11, i64 0, i64 %110
  %112 = load i32, i32* %3, align 4
  %113 = sext i32 %112 to i64
  %114 = getelementptr inbounds [100 x i32], [100 x i32]* %111, i64 0, i64 %113
  %115 = load i32, i32* %114, align 4
  %116 = add nsw i32 %108, %115
  store i32 %116, i32* %6, align 4
  %117 = load i32, i32* %6, align 4
  %118 = load i32, i32* %5, align 4
  %119 = sub nsw i32 %118, %117
  store i32 %119, i32* %5, align 4
  %120 = load i32, i32* %5, align 4
  %121 = load i32, i32* %9, align 4
  %122 = sext i32 %121 to i64
  %123 = getelementptr inbounds [100 x i32], [100 x i32]* %10, i64 0, i64 %122
  store i32 %120, i32* %123, align 4
  store i32 0, i32* %5, align 4
  br label %124

124:                                              ; preds = %93
  %125 = load i32, i32* %9, align 4
  %126 = add nsw i32 %125, 1
  store i32 %126, i32* %9, align 4
  br label %13

127:                                              ; preds = %13
  store i32 1, i32* %9, align 4
  br label %128

128:                                              ; preds = %138, %127
  %129 = load i32, i32* %9, align 4
  %130 = load i32, i32* %4, align 4
  %131 = icmp sle i32 %129, %130
  br i1 %131, label %132, label %141

132:                                              ; preds = %128
  %133 = load i32, i32* %9, align 4
  %134 = sext i32 %133 to i64
  %135 = getelementptr inbounds [100 x i32], [100 x i32]* %10, i64 0, i64 %134
  %136 = load i32, i32* %135, align 4
  %137 = call i32 (i8*, ...) @printf(i8* getelementptr inbounds ([4 x i8], [4 x i8]* @.str.2, i64 0, i64 0), i32 %136)
  br label %138

138:                                              ; preds = %132
  %139 = load i32, i32* %9, align 4
  %140 = add nsw i32 %139, 1
  store i32 %140, i32* %9, align 4
  br label %128

141:                                              ; preds = %128
  ret i32 0
}

declare dso_local i32 @__isoc99_scanf(i8*, ...) #1

declare dso_local i32 @printf(i8*, ...) #1


!llvm.module.flags = !{!0}
!llvm.ident = !{!1}

!0 = !{i32 1, !"wchar_size", i32 4}
!1 = !{!"clang version 10.0.0-4ubuntu1 "}
